; Function Attrs: mustprogress nounwind uwtable
define internal void @"_ZN4LuauL8fnVisitRIZL20DOCTEST_ANON_FUNC_13vE3$_2NSt7__cxx1112basic_stringIcSt11char_traitsIcESaIcEEEiEEvRT_RT0_PNSt11conditionalIXsr3stdE10is_const_vIT1_EEKvvE4typeE"(ptr nocapture nonnull readnone align 1 %0, ptr noundef nonnull align 8 dereferenceable(32) %1, ptr nocapture noundef %2) #4 {
  %4 = alloca %"class.std::__cxx11::basic_string", align 8
  %5 = load i32, ptr %2, align 4, !noalias !203
  %6 = add nsw i32 %5, 1
  store i32 %6, ptr %2, align 4, !noalias !203
  call void @_ZNSt7__cxx119to_stringEi(ptr dead_on_unwind nonnull writable sret(%"class.std::__cxx11::basic_string") align 8 %4, i32 noundef %6) #13
  %7 = call noundef nonnull align 8 dereferenceable(32) ptr @_ZNSt7__cxx1112basic_stringIcSt11char_traitsIcESaIcEEaSEOS4_(ptr noundef nonnull align 8 dereferenceable(32) %1, ptr noundef nonnull align 8 dereferenceable(32) %4) #13
  call void @_ZNSt7__cxx1112basic_stringIcSt11char_traitsIcESaIcEED1Ev(ptr noundef nonnull align 8 dereferenceable(32) %4) #13
  ret void
}